target datalayout = "e-m:e-p270:32:32-p271:32:32-p272:64:64-i64:64-i128:128-f80:128-n8:16:32:64-S128"
target triple = "x86_64-pc-linux-gnu"

@.str.72 = private unnamed_addr constant [8 x i8] c"unknown\00", align 1
@.str.73 = private unnamed_addr constant [4 x i8] c"off\00", align 1
@.str.74 = private unnamed_addr constant [8 x i8] c"summary\00", align 1
@.str.75 = private unnamed_addr constant [7 x i8] c"detail\00", align 1
@.str.76 = private unnamed_addr constant [8 x i8] c"invalid\00", align 1

; Function Attrs: mustprogress nounwind uwtable
define hidden noundef ptr @_ZN7NMTUtil24tracking_level_to_stringE17NMT_TrackingLevel(i32 noundef %0) #1 align 2 {
  %2 = alloca ptr, align 8
  %3 = alloca i32, align 4
  store i32 %0, ptr %3, align 4
  %4 = load i32, ptr %3, align 4
  switch i32 %4, label %9 [
    i32 0, label %5
    i32 1, label %6
    i32 2, label %7
    i32 3, label %8
  ]

5:                                                ; preds = %1
  store ptr @.str.72, ptr %2, align 8
  br label %10

6:                                                ; preds = %1
  store ptr @.str.73, ptr %2, align 8
  br label %10

7:                                                ; preds = %1
  store ptr @.str.74, ptr %2, align 8
  br label %10

8:                                                ; preds = %1
  store ptr @.str.75, ptr %2, align 8
  br label %10

9:                                                ; preds = %1
  store ptr @.str.76, ptr %2, align 8
  br label %10

10:                                               ; preds = %9, %8, %7, %6, %5
  %11 = load ptr, ptr %2, align 8
  ret ptr %11
}